; Function Attrs: mustprogress uwtable
define dso_local void @_ZNK3igl3xml15XMLSerializable9SerializeEPN8tinyxml211XMLDocumentEPNS2_10XMLElementE(ptr noundef nonnull align 8 dereferenceable(40) %0, ptr noundef %1, ptr noundef %2) unnamed_addr #2 align 2 personality ptr @__gxx_personality_v0 {
  %4 = load ptr, ptr %0, align 8, !tbaa !4
  %5 = getelementptr inbounds nuw i8, ptr %4, i64 56
  %6 = load ptr, ptr %5, align 8
  %7 = tail call noundef zeroext i1 %6(ptr noundef nonnull align 8 dereferenceable(40) %0)
  br i1 %7, label %8, label %44

8:                                                ; preds = %3
  %9 = getelementptr inbounds nuw i8, ptr %0, i64 8
  %10 = load i8, ptr %9, align 8, !tbaa !7, !range !20, !noundef !21
  %11 = icmp eq i8 %10, 0
  br i1 %11, label %12, label %20

12:                                               ; preds = %8
  %13 = getelementptr inbounds nuw i8, ptr %0, i64 16
  %14 = load ptr, ptr %13, align 8, !tbaa !22
  %15 = getelementptr inbounds nuw i8, ptr %0, i64 24
  %16 = load ptr, ptr %15, align 8, !tbaa !23
  %.not.i.i = icmp eq ptr %16, %14
  br i1 %.not.i.i, label %_ZNSt6vectorIPN3igl3xml19XMLSerializableBaseESaIS3_EE5clearEv.exit, label %_ZSt8_DestroyIPPN3igl3xml19XMLSerializableBaseES3_EvT_S5_RSaIT0_E.exit.i.i

_ZSt8_DestroyIPPN3igl3xml19XMLSerializableBaseES3_EvT_S5_RSaIT0_E.exit.i.i: ; preds = %12
  store ptr %14, ptr %15, align 8, !tbaa !23
  br label %_ZNSt6vectorIPN3igl3xml19XMLSerializableBaseESaIS3_EE5clearEv.exit

_ZNSt6vectorIPN3igl3xml19XMLSerializableBaseESaIS3_EE5clearEv.exit: ; preds = %12, %_ZSt8_DestroyIPPN3igl3xml19XMLSerializableBaseES3_EvT_S5_RSaIT0_E.exit.i.i
  %17 = load ptr, ptr %0, align 8, !tbaa !4
  %18 = getelementptr inbounds nuw i8, ptr %17, i64 48
  %19 = load ptr, ptr %18, align 8
  tail call void %19(ptr noundef nonnull align 8 dereferenceable(40) %0)
  store i8 1, ptr %9, align 8, !tbaa !7
  br label %20

20:                                               ; preds = %_ZNSt6vectorIPN3igl3xml19XMLSerializableBaseESaIS3_EE5clearEv.exit, %8
  %21 = getelementptr inbounds nuw i8, ptr %0, i64 16
  %22 = getelementptr inbounds nuw i8, ptr %0, i64 24
  %23 = load ptr, ptr %22, align 8, !tbaa !23
  %24 = load ptr, ptr %21, align 8, !tbaa !22
  %.not = icmp eq ptr %23, %24
  br i1 %.not, label %._crit_edge, label %.lr.ph

._crit_edge:                                      ; preds = %.lr.ph, %20
  %25 = load ptr, ptr %0, align 8, !tbaa !4
  %26 = getelementptr inbounds nuw i8, ptr %25, i64 64
  %27 = load ptr, ptr %26, align 8
  tail call void %27(ptr noundef nonnull align 8 dereferenceable(40) %0)
  br label %44

.lr.ph:                                           ; preds = %20, %.lr.ph
  %28 = phi ptr [ %38, %.lr.ph ], [ %24, %20 ]
  %29 = phi i64 [ %36, %.lr.ph ], [ 0, %20 ]
  %.06 = phi i32 [ %35, %.lr.ph ], [ 0, %20 ]
  %30 = getelementptr inbounds nuw ptr, ptr %28, i64 %29
  %31 = load ptr, ptr %30, align 8, !tbaa !24
  %32 = load ptr, ptr %31, align 8, !tbaa !4
  %33 = getelementptr inbounds nuw i8, ptr %32, i64 32
  %34 = load ptr, ptr %33, align 8
  tail call void %34(ptr noundef nonnull align 8 dereferenceable(8) %31, ptr noundef %1, ptr noundef %2)
  %35 = add i32 %.06, 1
  %36 = zext i32 %35 to i64
  %37 = load ptr, ptr %22, align 8, !tbaa !23
  %38 = load ptr, ptr %21, align 8, !tbaa !22
  %39 = ptrtoint ptr %37 to i64
  %40 = ptrtoint ptr %38 to i64
  %41 = sub i64 %39, %40
  %42 = ashr exact i64 %41, 3
  %43 = icmp ugt i64 %42, %36
  br i1 %43, label %.lr.ph, label %._crit_edge, !llvm.loop !29

44:                                               ; preds = %._crit_edge, %3
  ret void
}